; Function Attrs: mustprogress uwtable
define hidden noundef zeroext i1 @_ZN6spacer13is_normalizedE7obj_refI4expr11ast_managerEbb(ptr nocapture noundef readonly %e, i1 noundef zeroext %use_simplify_bounds, i1 noundef zeroext %use_factor_eqs) local_unnamed_addr #3 personality ptr @__gxx_personality_v0 {
entry:
  %out = alloca %class.obj_ref, align 8
  %out0 = alloca %class.obj_ref, align 8
  %m_manager.i = getelementptr inbounds i8, ptr %e, i64 8
  %0 = load ptr, ptr %m_manager.i, align 8
  store ptr null, ptr %out, align 8
  %m_manager.i4 = getelementptr inbounds i8, ptr %out, i64 8
  store ptr %0, ptr %m_manager.i4, align 8
  %1 = load ptr, ptr %e, align 8
  invoke void @_ZN6spacer9normalizeEP4exprR7obj_refIS0_11ast_managerEbb(ptr noundef %1, ptr noundef nonnull align 8 dereferenceable(16) %out, i1 noundef zeroext %use_simplify_bounds, i1 noundef zeroext %use_factor_eqs)
          to label %invoke.cont4 unwind label %lpad

invoke.cont4:                                     ; preds = %entry
  %2 = load ptr, ptr %out, align 8
  store ptr %2, ptr %out0, align 8
  %m_manager.i5 = getelementptr inbounds i8, ptr %out0, i64 8
  %3 = load ptr, ptr %m_manager.i4, align 8
  store ptr %3, ptr %m_manager.i5, align 8
  %tobool.not.i.i = icmp eq ptr %2, null
  br i1 %tobool.not.i.i, label %invoke.cont5, label %_ZN11ast_manager7inc_refEP3ast.exit.i.i

_ZN11ast_manager7inc_refEP3ast.exit.i.i:          ; preds = %invoke.cont4
  %m_ref_count.i.i.i.i = getelementptr inbounds i8, ptr %2, i64 8
  %4 = load i32, ptr %m_ref_count.i.i.i.i, align 4
  %inc.i.i.i.i = add i32 %4, 1
  store i32 %inc.i.i.i.i, ptr %m_ref_count.i.i.i.i, align 4
  br label %invoke.cont5

invoke.cont5:                                     ; preds = %_ZN11ast_manager7inc_refEP3ast.exit.i.i, %invoke.cont4
  %5 = load ptr, ptr %e, align 8
  %cmp.i.not = icmp eq ptr %5, %2
  br i1 %cmp.i.not, label %if.end, label %if.then

if.then:                                          ; preds = %invoke.cont5
  invoke void @_ZN6spacer9normalizeEP4exprR7obj_refIS0_11ast_managerEbb(ptr noundef %2, ptr noundef nonnull align 8 dereferenceable(16) %out, i1 noundef zeroext %use_simplify_bounds, i1 noundef zeroext %use_factor_eqs)
          to label %if.then.if.end_crit_edge unwind label %lpad6

if.then.if.end_crit_edge:                         ; preds = %if.then
  %.pre = load ptr, ptr %e, align 8
  %.pre18 = load ptr, ptr %out, align 8
  br label %if.end

lpad:                                             ; preds = %entry
  %6 = landingpad { ptr, i32 }
          cleanup
  br label %ehcleanup

lpad6:                                            ; preds = %if.then
  %7 = landingpad { ptr, i32 }
          cleanup
  call void @_ZN7obj_refI4expr11ast_managerED2Ev(ptr noundef nonnull align 8 dereferenceable(16) %out0) #20
  br label %ehcleanup

if.end:                                           ; preds = %if.then.if.end_crit_edge, %invoke.cont5
  %8 = phi ptr [ %.pre18, %if.then.if.end_crit_edge ], [ %2, %invoke.cont5 ]
  %9 = phi ptr [ %.pre, %if.then.if.end_crit_edge ], [ %2, %invoke.cont5 ]
  br i1 %tobool.not.i.i, label %_ZN7obj_refI4expr11ast_managerED2Ev.exit, label %if.then.i.i.i

if.then.i.i.i:                                    ; preds = %if.end
  %m_ref_count.i.i.i.i8 = getelementptr inbounds i8, ptr %2, i64 8
  %10 = load i32, ptr %m_ref_count.i.i.i.i8, align 4
  %dec.i.i.i.i = add i32 %10, -1
  store i32 %dec.i.i.i.i, ptr %m_ref_count.i.i.i.i8, align 4
  %cmp.i.i.i = icmp eq i32 %dec.i.i.i.i, 0
  br i1 %cmp.i.i.i, label %if.then2.i.i.i, label %_ZN7obj_refI4expr11ast_managerED2Ev.exit

if.then2.i.i.i:                                   ; preds = %if.then.i.i.i
  invoke void @_ZN11ast_manager11delete_nodeEP3ast(ptr noundef nonnull align 8 dereferenceable(976) %3, ptr noundef nonnull %2)
          to label %if.then2.i.i.i._ZN7obj_refI4expr11ast_managerED2Ev.exitthread-pre-split_crit_edge unwind label %terminate.lpad.i

if.then2.i.i.i._ZN7obj_refI4expr11ast_managerED2Ev.exitthread-pre-split_crit_edge: ; preds = %if.then2.i.i.i
  %.pr.pre = load ptr, ptr %out, align 8
  br label %_ZN7obj_refI4expr11ast_managerED2Ev.exit

terminate.lpad.i:                                 ; preds = %if.then2.i.i.i
  %11 = landingpad { ptr, i32 }
          catch ptr null
  %12 = extractvalue { ptr, i32 } %11, 0
  call void @__clang_call_terminate(ptr %12) #21
  unreachable

_ZN7obj_refI4expr11ast_managerED2Ev.exit:         ; preds = %if.then.i.i.i, %if.then2.i.i.i._ZN7obj_refI4expr11ast_managerED2Ev.exitthread-pre-split_crit_edge, %if.end
  %13 = phi ptr [ %8, %if.end ], [ %.pr.pre, %if.then2.i.i.i._ZN7obj_refI4expr11ast_managerED2Ev.exitthread-pre-split_crit_edge ], [ %8, %if.then.i.i.i ]
  %tobool.not.i.i9 = icmp eq ptr %13, null
  br i1 %tobool.not.i.i9, label %_ZN7obj_refI4expr11ast_managerED2Ev.exit17, label %if.then.i.i.i10

if.then.i.i.i10:                                  ; preds = %_ZN7obj_refI4expr11ast_managerED2Ev.exit
  %14 = load ptr, ptr %m_manager.i4, align 8
  %m_ref_count.i.i.i.i12 = getelementptr inbounds i8, ptr %13, i64 8
  %15 = load i32, ptr %m_ref_count.i.i.i.i12, align 4
  %dec.i.i.i.i13 = add i32 %15, -1
  store i32 %dec.i.i.i.i13, ptr %m_ref_count.i.i.i.i12, align 4
  %cmp.i.i.i14 = icmp eq i32 %dec.i.i.i.i13, 0
  br i1 %cmp.i.i.i14, label %if.then2.i.i.i15, label %_ZN7obj_refI4expr11ast_managerED2Ev.exit17

if.then2.i.i.i15:                                 ; preds = %if.then.i.i.i10
  invoke void @_ZN11ast_manager11delete_nodeEP3ast(ptr noundef nonnull align 8 dereferenceable(976) %14, ptr noundef nonnull %13)
          to label %_ZN7obj_refI4expr11ast_managerED2Ev.exit17 unwind label %terminate.lpad.i16

terminate.lpad.i16:                               ; preds = %if.then2.i.i.i15
  %16 = landingpad { ptr, i32 }
          catch ptr null
  %17 = extractvalue { ptr, i32 } %16, 0
  call void @__clang_call_terminate(ptr %17) #21
  unreachable

_ZN7obj_refI4expr11ast_managerED2Ev.exit17:       ; preds = %_ZN7obj_refI4expr11ast_managerED2Ev.exit, %if.then.i.i.i10, %if.then2.i.i.i15
  %cmp.i6 = icmp eq ptr %9, %8
  ret i1 %cmp.i6

ehcleanup:                                        ; preds = %lpad6, %lpad
  %.pn = phi { ptr, i32 } [ %7, %lpad6 ], [ %6, %lpad ]
  call void @_ZN7obj_refI4expr11ast_managerED2Ev(ptr noundef nonnull align 8 dereferenceable(16) %out) #20
  resume { ptr, i32 } %.pn
}